; Function Attrs: mustprogress uwtable
define void @_ZNK6casadi8Function9serializeERSoRKSt3mapINSt7__cxx1112basic_stringIcSt11char_traitsIcESaIcEEENS_11GenericTypeESt4lessIS8_ESaISt4pairIKS8_S9_EEE(ptr noundef nonnull align 8 dereferenceable(8) %0, ptr noundef nonnull align 8 dereferenceable(8) %1, ptr noundef nonnull align 8 dereferenceable(48) %2) local_unnamed_addr #4 align 2 personality ptr @__gxx_personality_v0 {
  %4 = alloca %"class.casadi::SerializingStream", align 8
  call void @llvm.lifetime.start.p0(i64 80, ptr nonnull %4) #30
  call void @_ZN6casadi17SerializingStreamC1ERSoRKSt3mapINSt7__cxx1112basic_stringIcSt11char_traitsIcESaIcEEENS_11GenericTypeESt4lessIS8_ESaISt4pairIKS8_S9_EEE(ptr noundef nonnull align 8 dereferenceable(73) %4, ptr noundef nonnull align 8 dereferenceable(8) %1, ptr noundef nonnull align 8 dereferenceable(48) %2)
  invoke void @_ZNK6casadi8Function9serializeERNS_17SerializingStreamE(ptr noundef nonnull align 8 dereferenceable(8) %0, ptr noundef nonnull align 8 dereferenceable(73) %4)
          to label %5 unwind label %19

5:                                                ; preds = %3
  %6 = getelementptr inbounds nuw i8, ptr %4, i64 16
  %7 = load ptr, ptr %6, align 8, !tbaa !646
  %.not5.i.i.i.i.i = icmp eq ptr %7, null
  br i1 %.not5.i.i.i.i.i, label %_ZNSt10_HashtableIPvSt4pairIKS0_xESaIS3_ENSt8__detail10_Select1stESt8equal_toIS0_ESt4hashIS0_ENS5_18_Mod_range_hashingENS5_20_Default_ranged_hashENS5_20_Prime_rehash_policyENS5_17_Hashtable_traitsILb0ELb0ELb1EEEE5clearEv.exit.i.i.i, label %.lr.ph.i.i.i.i.i

.lr.ph.i.i.i.i.i:                                 ; preds = %5, %.lr.ph.i.i.i.i.i
  %.06.i.i.i.i.i = phi ptr [ %8, %.lr.ph.i.i.i.i.i ], [ %7, %5 ]
  %8 = load ptr, ptr %.06.i.i.i.i.i, align 8, !tbaa !648
  call void @_ZdlPvm(ptr noundef nonnull %.06.i.i.i.i.i, i64 noundef 24) #31
  %.not.i.i.i.i.i = icmp eq ptr %8, null
  br i1 %.not.i.i.i.i.i, label %_ZNSt10_HashtableIPvSt4pairIKS0_xESaIS3_ENSt8__detail10_Select1stESt8equal_toIS0_ESt4hashIS0_ENS5_18_Mod_range_hashingENS5_20_Default_ranged_hashENS5_20_Prime_rehash_policyENS5_17_Hashtable_traitsILb0ELb0ELb1EEEE5clearEv.exit.i.i.i, label %.lr.ph.i.i.i.i.i, !llvm.loop !649

_ZNSt10_HashtableIPvSt4pairIKS0_xESaIS3_ENSt8__detail10_Select1stESt8equal_toIS0_ESt4hashIS0_ENS5_18_Mod_range_hashingENS5_20_Default_ranged_hashENS5_20_Prime_rehash_policyENS5_17_Hashtable_traitsILb0ELb0ELb1EEEE5clearEv.exit.i.i.i: ; preds = %.lr.ph.i.i.i.i.i, %5
  %9 = load ptr, ptr %4, align 8, !tbaa !650
  %10 = getelementptr inbounds nuw i8, ptr %4, i64 8
  %11 = load i64, ptr %10, align 8, !tbaa !651
  %12 = shl i64 %11, 3
  call void @llvm.memset.p0.i64(ptr align 8 %9, i8 0, i64 %12, i1 false)
  call void @llvm.memset.p0.i64(ptr noundef nonnull align 8 dereferenceable(16) %6, i8 0, i64 16, i1 false)
  %13 = load ptr, ptr %4, align 8, !tbaa !650
  %14 = getelementptr inbounds nuw i8, ptr %4, i64 48
  %15 = icmp eq ptr %13, %14
  br i1 %15, label %_ZN6casadi17SerializingStreamD2Ev.exit, label %16

16:                                               ; preds = %_ZNSt10_HashtableIPvSt4pairIKS0_xESaIS3_ENSt8__detail10_Select1stESt8equal_toIS0_ESt4hashIS0_ENS5_18_Mod_range_hashingENS5_20_Default_ranged_hashENS5_20_Prime_rehash_policyENS5_17_Hashtable_traitsILb0ELb0ELb1EEEE5clearEv.exit.i.i.i
  %17 = load i64, ptr %10, align 8, !tbaa !651
  %18 = shl i64 %17, 3
  call void @_ZdlPvm(ptr noundef %13, i64 noundef %18) #31
  br label %_ZN6casadi17SerializingStreamD2Ev.exit

_ZN6casadi17SerializingStreamD2Ev.exit:           ; preds = %_ZNSt10_HashtableIPvSt4pairIKS0_xESaIS3_ENSt8__detail10_Select1stESt8equal_toIS0_ESt4hashIS0_ENS5_18_Mod_range_hashingENS5_20_Default_ranged_hashENS5_20_Prime_rehash_policyENS5_17_Hashtable_traitsILb0ELb0ELb1EEEE5clearEv.exit.i.i.i, %16
  call void @llvm.lifetime.end.p0(i64 80, ptr nonnull %4) #30
  ret void

19:                                               ; preds = %3
  %20 = landingpad { ptr, i32 }
          cleanup
  call void @_ZN6casadi17SerializingStreamD2Ev(ptr noundef nonnull align 8 dereferenceable(73) %4) #30
  call void @llvm.lifetime.end.p0(i64 80, ptr nonnull %4) #30
  resume { ptr, i32 } %20
}